; Function Attrs: mustprogress uwtable
define internal fastcc void @_ZN12_GLOBAL__N_110CloseEventC2Ev(ptr noundef nonnull align 8 dereferenceable(52) %0) unnamed_addr #4 align 2 personality ptr @__gxx_personality_v0 {
  %2 = getelementptr inbounds nuw i8, ptr %0, i64 8
  %3 = getelementptr inbounds nuw i8, ptr %0, i64 24
  store ptr %3, ptr %2, align 8, !tbaa !4
  %4 = getelementptr inbounds nuw i8, ptr %0, i64 16
  store i64 0, ptr %4, align 8, !tbaa !15
  store i8 0, ptr %3, align 8, !tbaa !14
  %5 = getelementptr inbounds nuw i8, ptr %0, i64 40
  store ptr null, ptr %5, align 8, !tbaa !79
  store ptr getelementptr inbounds nuw inrange(-16, 16) (i8, ptr @_ZTVN12_GLOBAL__N_110CloseEventE, i64 16), ptr %0, align 8, !tbaa !16
  %6 = getelementptr inbounds nuw i8, ptr %0, i64 48
  store i32 0, ptr %6, align 8, !tbaa !126
  %7 = invoke noundef nonnull align 8 dereferenceable(32) ptr @_ZNSt7__cxx1112basic_stringIcSt11char_traitsIcESaIcEE10_M_replaceEmmPKcm(ptr noundef nonnull align 8 dereferenceable(32) %2, i64 noundef 0, i64 noundef 0, ptr noundef nonnull @.str.126, i64 noundef 10)
          to label %_ZNSt7__cxx1112basic_stringIcSt11char_traitsIcESaIcEEaSEPKc.exit unwind label %8

_ZNSt7__cxx1112basic_stringIcSt11char_traitsIcESaIcEEaSEPKc.exit: ; preds = %1
  ret void

8:                                                ; preds = %1
  %9 = landingpad { ptr, i32 }
          cleanup
  store ptr getelementptr inbounds nuw inrange(-16, 16) (i8, ptr @_ZTVN12_GLOBAL__N_15EventE, i64 16), ptr %0, align 8, !tbaa !16
  %10 = load ptr, ptr %2, align 8, !tbaa !12
  %11 = icmp eq ptr %10, %3
  br i1 %11, label %_ZNKSt7__cxx1112basic_stringIcSt11char_traitsIcESaIcEE11_M_is_localEv.exit.thread.i.i.i, label %_ZNKSt7__cxx1112basic_stringIcSt11char_traitsIcESaIcEE11_M_is_localEv.exit.i.i.i

_ZNKSt7__cxx1112basic_stringIcSt11char_traitsIcESaIcEE11_M_is_localEv.exit.thread.i.i.i: ; preds = %8
  %12 = load i64, ptr %4, align 8, !tbaa !15
  %13 = icmp ult i64 %12, 16
  tail call void @llvm.assume(i1 %13)
  br label %_ZN12_GLOBAL__N_15EventD2Ev.exit

_ZNKSt7__cxx1112basic_stringIcSt11char_traitsIcESaIcEE11_M_is_localEv.exit.i.i.i: ; preds = %8
  %14 = load i64, ptr %3, align 8, !tbaa !14
  %15 = add i64 %14, 1
  tail call void @_ZdlPvm(ptr noundef %10, i64 noundef %15) #31
  br label %_ZN12_GLOBAL__N_15EventD2Ev.exit

_ZN12_GLOBAL__N_15EventD2Ev.exit:                 ; preds = %_ZNKSt7__cxx1112basic_stringIcSt11char_traitsIcESaIcEE11_M_is_localEv.exit.thread.i.i.i, %_ZNKSt7__cxx1112basic_stringIcSt11char_traitsIcESaIcEE11_M_is_localEv.exit.i.i.i
  resume { ptr, i32 } %9
}